Certificate:
    Data:
        Version: 3 (0x2)
        Serial Number: 1 (0x1)
        Signature Algorithm: sha256WithRSAEncryption
        Issuer: C=DE, O=python-ldap, OU=slapd-test, CN=Python LDAP Test CA
        Validity
            Not Before: Jun 18 11:22:40 2020 GMT
            Not After : Dec 24 11:22:40 2995 GMT
        Subject: C=DE, O=python-ldap, OU=slapd-test, CN=Python LDAP Test CA
        Subject Public Key Info:
            Public Key Algorithm: rsaEncryption
                RSA Public-Key: (2048 bit)
                Modulus:
                    00:b6:a0:93:b7:8b:16:19:3a:fd:78:07:0a:43:09:
                    07:3f:ee:a3:65:1c:f6:37:0a:d5:94:f1:4b:0c:e4:
                    ba:ba:6a:99:9e:53:31:7a:c5:69:30:cc:e9:12:b4:
                    bf:dc:63:47:dc:f0:eb:5d:a4:d3:ed:08:87:2b:c9:
                    04:6f:fe:2f:ea:ea:67:34:5f:e0:ed:aa:31:32:3b:
                    75:8a:2d:a4:ad:e8:cd:fb:9d:4c:cd:cf:a0:16:0f:
                    17:17:90:18:81:b5:1d:49:6a:b3:70:cf:f9:7f:b7:
                    0a:6f:a1:62:81:04:2d:c7:00:f0:56:21:f0:0b:ee:
                    f0:90:aa:91:af:64:36:76:98:f7:be:0c:c5:a2:a6:
                    c7:13:a0:b9:3c:6a:e0:18:f4:44:c7:35:b7:f5:14:
                    3f:0f:eb:89:ae:32:08:20:bf:5c:56:3c:77:9e:95:
                    1f:ba:d6:27:48:85:37:3c:dc:31:84:d9:79:e6:b8:
                    fe:c5:2a:96:e8:87:0e:9a:19:6d:84:b4:d4:e4:d4:
                    e0:aa:b6:b7:06:cd:4d:f9:ee:97:91:33:b8:23:2b:
                    ef:3b:a9:ce:1a:4d:04:ca:19:63:2e:d8:2b:48:2a:
                    cb:97:b6:b3:eb:4f:f7:2c:c2:d1:d5:20:54:31:ea:
                    7c:ee:77:13:f2:cb:68:5a:05:a7:b7:aa:36:a1:79:
                    08:ad
                Exponent: 65537 (0x10001)
        X509v3 extensions:
            X509v3 Basic Constraints: critical
                CA:TRUE
            X509v3 Key Usage: critical
                Certificate Sign, CRL Sign
            X509v3 Subject Key Identifier: 
                C1:F8:67:3F:4F:2D:C1:A1:C7:D3:CF:A2:33:76:77:BA:51:A4:46:9C
            X509v3 Authority Key Identifier: 
                keyid:C1:F8:67:3F:4F:2D:C1:A1:C7:D3:CF:A2:33:76:77:BA:51:A4:46:9C

    Signature Algorithm: sha256WithRSAEncryption
         5d:be:d6:50:18:47:cc:b7:73:c8:9f:97:b3:87:c1:7c:ab:68:
         67:5b:cf:9c:f3:b2:eb:8c:0f:0f:c5:ba:f1:2b:83:d9:3c:3c:
         58:51:bf:18:c7:8b:a3:56:78:66:bd:6f:d4:db:f8:80:89:4f:
         fb:a6:44:b9:34:54:6f:9d:f1:9d:78:71:7a:0a:89:61:e5:8d:
         bd:06:b0:a8:2b:7a:f7:d2:16:0d:a0:b4:20:ec:59:27:c9:56:
         18:0e:ee:d7:1e:b5:62:aa:30:26:16:79:b2:1f:e2:80:25:cc:
         40:9b:33:e4:99:83:b3:b3:ba:ce:3b:74:71:eb:9c:4b:09:62:
         01:66:a6:b6:64:70:95:c9:b5:70:69:dc:7c:9b:f3:04:de:11:
         be:13:3b:17:6e:94:b4:c3:f2:0d:ca:95:ea:1b:22:a6:43:c6:
         d1:fc:1c:f9:07:ff:af:e5:d8:a1:f7:07:b9:68:24:53:c1:14:
         21:b1:46:c9:3a:33:ad:0c:b0:63:6f:b5:d7:ca:39:9f:65:5e:
         28:8a:8f:d6:45:75:f2:1d:b6:ca:b2:f7:ac:8d:c2:b5:8f:46:
         ff:f4:84:a4:4c:18:ec:22:df:08:bc:bf:ca:44:1c:f3:76:dd:
         34:35:30:dc:a5:55:1f:fd:1a:32:b8:fc:ea:a8:3d:24:65:18:
         ac:38:dd:59
-----BEGIN CERTIFICATE-----
MIIDjDCCAnSgAwIBAgIBATANBgkqhkiG9w0BAQsFADBWMQswCQYDVQQGEwJERTEU
MBIGA1UECgwLcHl0aG9uLWxkYXAxEzARBgNVBAsMCnNsYXBkLXRlc3QxHDAaBgNV
BAMME1B5dGhvbiBMREFQIFRlc3QgQ0EwIBcNMjAwNjE4MTEyMjQwWhgPMjk5NTEy
MjQxMTIyNDBaMFYxCzAJBgNVBAYTAkRFMRQwEgYDVQQKDAtweXRob24tbGRhcDET
MBEGA1UECwwKc2xhcGQtdGVzdDEcMBoGA1UEAwwTUHl0aG9uIExEQVAgVGVzdCBD
QTCCASIwDQYJKoZIhvcNAQEBBQADggEPADCCAQoCggEBALagk7eLFhk6/XgHCkMJ
Bz/uo2Uc9jcK1ZTxSwzkurpqmZ5TMXrFaTDM6RK0v9xjR9zw612k0+0IhyvJBG/+
L+rqZzRf4O2qMTI7dYotpK3ozfudTM3PoBYPFxeQGIG1HUlqs3DP+X+3Cm+hYoEE
LccA8FYh8Avu8JCqka9kNnaY974MxaKmxxOguTxq4Bj0RMc1t/UUPw/ria4yCCC/
XFY8d56VH7rWJ0iFNzzcMYTZeea4/sUqluiHDpoZbYS01OTU4Kq2twbNTfnul5Ez
uCMr7zupzhpNBMoZYy7YK0gqy5e2s+tP9yzC0dUgVDHqfO53E/LLaFoFp7eqNqF5
CK0CAwEAAaNjMGEwDwYDVR0TAQH/BAUwAwEB/zAOBgNVHQ8BAf8EBAMCAQYwHQYD
VR0OBBYEFMH4Zz9PLcGhx9PPojN2d7pRpEacMB8GA1UdIwQYMBaAFMH4Zz9PLcGh
x9PPojN2d7pRpEacMA0GCSqGSIb3DQEBCwUAA4IBAQBdvtZQGEfMt3PIn5ezh8F8
q2hnW8+c87LrjA8PxbrxK4PZPDxYUb8Yx4ujVnhmvW/U2/iAiU/7pkS5NFRvnfGd
eHF6Colh5Y29BrCoK3r30hYNoLQg7FknyVYYDu7XHrViqjAmFnmyH+KAJcxAmzPk
mYOzs7rOO3Rx65xLCWIBZqa2ZHCVybVwadx8m/ME3hG+EzsXbpS0w/INypXqGyKm
Q8bR/Bz5B/+v5dih9we5aCRTwRQhsUbJOjOtDLBjb7XXyjmfZV4oio/WRXXyHbbK
svesjcK1j0b/9ISkTBjsIt8IvL/KRBzzdt00NTDcpVUf/RoyuPzqqD0kZRisON1Z
-----END CERTIFICATE-----
