Certificate:
    Data:
        Version: 3 (0x2)
        Serial Number: 3 (0x3)
        Signature Algorithm: sha256WithRSAEncryption
        Issuer: C=DE, O=python-ldap, OU=slapd-test, CN=Python LDAP Test CA
        Validity
            Not Before: Jun 18 11:22:40 2020 GMT
            Not After : May  7 11:22:40 3020 GMT
        Subject: C=DE, O=python-ldap, OU=slapd-test, CN=client
        Subject Public Key Info:
            Public Key Algorithm: rsaEncryption
                RSA Public-Key: (2048 bit)
                Modulus:
                    00:c1:1a:e7:4c:e6:d2:88:1e:10:bc:9a:f6:0f:61:
                    22:0d:b0:83:b8:09:84:85:b0:ec:14:ca:c8:42:94:
                    c3:12:b9:5b:e1:5f:5c:c5:bc:27:26:bf:a6:04:47:
                    59:99:67:af:df:3c:48:53:47:fd:03:de:7b:32:46:
                    4f:b6:39:ac:9a:68:8d:df:0d:45:47:5e:6e:15:e9:
                    bb:a0:08:31:a8:af:76:c0:37:8b:d5:99:73:9e:44:
                    83:ab:cd:74:bc:f0:c1:4a:ba:78:0a:2e:8a:01:8d:
                    8b:85:42:c6:85:c3:da:b9:fd:1e:70:0e:c5:2e:9c:
                    d5:bb:32:d8:19:60:35:19:22:b3:f3:ab:bc:c8:cb:
                    2b:d4:a9:be:b6:c0:f5:02:04:1b:98:75:70:e5:fb:
                    dc:0d:55:6e:a7:ce:c9:72:5c:df:87:bb:ae:b5:e5:
                    b9:c1:57:c3:ee:b6:b7:82:75:f5:6c:0d:52:eb:7a:
                    c0:c4:0a:6d:59:52:79:c6:25:b9:65:1d:bd:e1:91:
                    78:38:c6:64:95:8c:f3:87:b3:68:0c:f9:d6:a4:49:
                    28:77:8b:af:b2:e4:75:06:97:64:a3:fc:15:95:07:
                    32:96:4f:22:00:5d:49:6f:44:38:1c:25:19:0d:42:
                    86:ac:3c:50:4e:f0:bd:dc:38:27:72:2f:92:65:ea:
                    d6:83
                Exponent: 65537 (0x10001)
        X509v3 extensions:
            X509v3 Basic Constraints: critical
                CA:FALSE
            X509v3 Key Usage: critical
                Digital Signature
            X509v3 Extended Key Usage: critical
                TLS Web Client Authentication
            X509v3 Subject Key Identifier: 
                D2:B8:4F:E0:3B:17:16:2B:03:5A:45:4A:C8:A1:3C:F8:67:FF:24:5E
            X509v3 Authority Key Identifier: 
                keyid:C1:F8:67:3F:4F:2D:C1:A1:C7:D3:CF:A2:33:76:77:BA:51:A4:46:9C

    Signature Algorithm: sha256WithRSAEncryption
         85:cd:8e:a2:0e:0b:f1:89:22:69:36:96:1a:d3:92:38:ec:2c:
         84:2b:f8:3a:86:48:87:96:51:94:d1:e1:ea:69:de:98:d1:4b:
         4f:86:2a:53:8b:ca:34:d2:e3:ac:69:c4:71:87:25:3c:c1:b8:
         60:a6:0e:90:27:8c:dc:f8:0a:d0:76:ca:d8:00:ab:61:13:c0:
         6d:ba:50:57:8e:de:d8:c2:c5:2d:85:46:89:20:71:25:c0:c9:
         1f:c2:6b:26:26:1d:f9:54:62:9f:ae:d3:31:f8:76:84:6e:c5:
         96:cc:c3:a3:b2:ac:2b:ad:48:d8:e0:7a:72:e8:22:3a:bd:fb:
         54:68:7d:12:21:91:9d:34:87:0f:02:c4:3b:90:58:d7:ca:43:
         bc:e8:4d:e0:7b:c4:77:4e:80:fa:a3:23:b1:b9:52:dd:15:31:
         d3:92:d0:d8:93:30:37:05:a8:a9:d4:d1:e2:40:84:e7:73:41:
         35:d2:53:2a:66:48:2e:8b:8e:8a:9c:42:70:b9:7b:48:6c:60:
         2b:ff:d7:b3:62:f0:d8:94:c5:2f:73:db:a7:f8:c6:82:92:70:
         0c:96:86:8d:de:37:03:32:d1:29:ea:a6:2b:d4:7a:11:43:77:
         50:31:e4:bd:8f:d1:45:db:ff:16:84:6a:c7:1a:47:56:89:fb:
         9a:e9:8e:32
-----BEGIN CERTIFICATE-----
MIIDlDCCAnygAwIBAgIBAzANBgkqhkiG9w0BAQsFADBWMQswCQYDVQQGEwJERTEU
MBIGA1UECgwLcHl0aG9uLWxkYXAxEzARBgNVBAsMCnNsYXBkLXRlc3QxHDAaBgNV
BAMME1B5dGhvbiBMREFQIFRlc3QgQ0EwIBcNMjAwNjE4MTEyMjQwWhgPMzAyMDA1
MDcxMTIyNDBaMEkxCzAJBgNVBAYTAkRFMRQwEgYDVQQKDAtweXRob24tbGRhcDET
MBEGA1UECwwKc2xhcGQtdGVzdDEPMA0GA1UEAwwGY2xpZW50MIIBIjANBgkqhkiG
9w0BAQEFAAOCAQ8AMIIBCgKCAQEAwRrnTObSiB4QvJr2D2EiDbCDuAmEhbDsFMrI
QpTDErlb4V9cxbwnJr+mBEdZmWev3zxIU0f9A957MkZPtjmsmmiN3w1FR15uFem7
oAgxqK92wDeL1ZlznkSDq810vPDBSrp4Ci6KAY2LhULGhcPauf0ecA7FLpzVuzLY
GWA1GSKz86u8yMsr1Km+tsD1AgQbmHVw5fvcDVVup87Jclzfh7uuteW5wVfD7ra3
gnX1bA1S63rAxAptWVJ5xiW5ZR294ZF4OMZklYzzh7NoDPnWpEkod4uvsuR1Bpdk
o/wVlQcylk8iAF1Jb0Q4HCUZDUKGrDxQTvC93Dgnci+SZerWgwIDAQABo3gwdjAM
BgNVHRMBAf8EAjAAMA4GA1UdDwEB/wQEAwIHgDAWBgNVHSUBAf8EDDAKBggrBgEF
BQcDAjAdBgNVHQ4EFgQU0rhP4DsXFisDWkVKyKE8+Gf/JF4wHwYDVR0jBBgwFoAU
wfhnP08twaHH08+iM3Z3ulGkRpwwDQYJKoZIhvcNAQELBQADggEBAIXNjqIOC/GJ
Imk2lhrTkjjsLIQr+DqGSIeWUZTR4epp3pjRS0+GKlOLyjTS46xpxHGHJTzBuGCm
DpAnjNz4CtB2ytgAq2ETwG26UFeO3tjCxS2FRokgcSXAyR/CayYmHflUYp+u0zH4
doRuxZbMw6OyrCutSNjgenLoIjq9+1RofRIhkZ00hw8CxDuQWNfKQ7zoTeB7xHdO
gPqjI7G5Ut0VMdOS0NiTMDcFqKnU0eJAhOdzQTXSUypmSC6LjoqcQnC5e0hsYCv/
17Ni8NiUxS9z26f4xoKScAyWho3eNwMy0SnqpivUehFDd1Ax5L2P0UXb/xaEasca
R1aJ+5rpjjI=
-----END CERTIFICATE-----
