Certificate:
    Data:
        Version: 3 (0x2)
        Serial Number: 2 (0x2)
        Signature Algorithm: sha256WithRSAEncryption
        Issuer: C=DE, O=python-ldap, OU=slapd-test, CN=Python LDAP Test CA
        Validity
            Not Before: Jun 18 11:22:40 2020 GMT
            Not After : May  7 11:22:40 3020 GMT
        Subject: C=DE, O=python-ldap, OU=slapd-test, CN=server-cn.python-ldap.test
        Subject Public Key Info:
            Public Key Algorithm: rsaEncryption
                RSA Public-Key: (2048 bit)
                Modulus:
                    00:cb:9a:e6:05:7a:29:5d:c2:19:b2:65:b6:d0:42:
                    40:37:db:fc:77:bf:21:7d:93:7f:fe:11:a7:76:a3:
                    97:02:7e:d3:fc:b6:c2:c0:25:c9:f7:18:11:60:23:
                    2a:b6:f3:5b:7c:88:c7:00:d6:ed:a4:af:c4:94:2c:
                    db:60:05:2b:44:b2:56:71:ea:b3:79:52:c7:4e:7d:
                    2e:a7:93:2e:cf:0c:c6:80:7f:a8:f0:6a:78:ee:5b:
                    61:f1:f8:53:43:cf:33:ba:3a:e7:0b:c2:34:c5:be:
                    be:a2:ce:24:c8:17:ba:65:85:45:28:67:e6:10:25:
                    d5:b1:1d:fc:f5:41:9a:24:2e:76:49:92:da:51:a5:
                    3c:f6:f7:c3:7e:57:20:c0:d0:e2:4a:ad:32:9e:ed:
                    ff:15:91:4d:3a:12:58:67:37:6b:2c:9c:3f:0e:fd:
                    25:fd:0d:14:ed:d2:91:90:1a:6c:36:90:f6:f3:3c:
                    6c:60:5c:b7:80:ce:a5:93:1a:bb:37:9f:17:2a:bd:
                    50:0c:ed:be:e5:e9:30:1c:31:b7:8c:f0:85:e2:67:
                    8b:8d:89:26:b7:90:bf:8d:b3:d6:d8:f6:dd:e0:ba:
                    04:d2:49:e6:f7:a9:0a:63:31:b5:f1:ee:cb:d4:86:
                    d1:5f:6d:eb:f1:6e:3f:40:b4:37:a2:36:81:f1:97:
                    40:13
                Exponent: 65537 (0x10001)
        X509v3 extensions:
            X509v3 Basic Constraints: critical
                CA:FALSE
            X509v3 Key Usage: critical
                Digital Signature, Key Encipherment
            X509v3 Extended Key Usage: critical
                TLS Web Server Authentication
            X509v3 Subject Key Identifier: 
                33:FA:43:3E:63:C6:46:32:19:22:AD:07:C3:E7:A0:93:33:05:3F:DD
            X509v3 Authority Key Identifier: 
                keyid:C1:F8:67:3F:4F:2D:C1:A1:C7:D3:CF:A2:33:76:77:BA:51:A4:46:9C

            X509v3 Subject Alternative Name: 
                DNS:localhost, DNS:localhost.localdomain, DNS:server-san.python-ldap.test, IP Address:127.0.0.1, IP Address:0:0:0:0:0:0:0:1
    Signature Algorithm: sha256WithRSAEncryption
         42:28:f8:c8:aa:a0:eb:dc:95:2c:2b:20:43:bc:4e:77:39:c6:
         1e:a7:bf:03:6a:65:ff:19:a6:72:20:09:0b:5b:82:d7:39:c2:
         61:c7:d3:48:3c:30:82:b5:7d:4b:7d:2a:f2:3a:e8:4c:12:56:
         34:bc:c4:e4:49:69:5f:85:bc:85:b4:98:26:06:5c:4c:de:d4:
         d3:c6:c9:3b:4b:1f:3f:aa:2e:09:3e:33:f6:44:1d:d6:8c:4d:
         a4:45:f3:3b:28:09:dd:99:86:cd:aa:b8:53:6f:47:69:6d:62:
         6f:d5:67:e6:78:58:eb:97:04:41:0a:08:e1:ee:ca:ca:2d:85:
         01:fd:77:f6:99:10:54:c6:ce:da:88:6c:b7:48:dc:6b:0f:60:
         ff:8a:f5:c1:83:de:25:ba:3f:53:1f:85:18:03:1e:06:14:da:
         1e:6f:b1:f6:29:0a:75:d1:3b:e7:85:7b:29:85:6c:ca:f0:1e:
         9e:f7:c4:d4:a8:00:8f:b3:94:c2:b3:d8:ea:9b:15:99:99:ec:
         26:26:21:b6:eb:63:fc:3f:21:99:2d:e2:5b:11:86:4c:98:82:
         e6:5d:e4:84:16:2a:13:30:37:42:01:0d:9e:fb:71:35:d4:8f:
         c4:cc:8b:6f:cd:cb:cd:29:2d:ef:d7:b5:36:64:d9:6e:59:d3:
         47:ba:3c:fe
-----BEGIN CERTIFICATE-----
MIIEDDCCAvSgAwIBAgIBAjANBgkqhkiG9w0BAQsFADBWMQswCQYDVQQGEwJERTEU
MBIGA1UECgwLcHl0aG9uLWxkYXAxEzARBgNVBAsMCnNsYXBkLXRlc3QxHDAaBgNV
BAMME1B5dGhvbiBMREFQIFRlc3QgQ0EwIBcNMjAwNjE4MTEyMjQwWhgPMzAyMDA1
MDcxMTIyNDBaMF0xCzAJBgNVBAYTAkRFMRQwEgYDVQQKDAtweXRob24tbGRhcDET
MBEGA1UECwwKc2xhcGQtdGVzdDEjMCEGA1UEAwwac2VydmVyLWNuLnB5dGhvbi1s
ZGFwLnRlc3QwggEiMA0GCSqGSIb3DQEBAQUAA4IBDwAwggEKAoIBAQDLmuYFeild
whmyZbbQQkA32/x3vyF9k3/+Ead2o5cCftP8tsLAJcn3GBFgIyq281t8iMcA1u2k
r8SULNtgBStEslZx6rN5UsdOfS6nky7PDMaAf6jwanjuW2Hx+FNDzzO6OucLwjTF
vr6iziTIF7plhUUoZ+YQJdWxHfz1QZokLnZJktpRpTz298N+VyDA0OJKrTKe7f8V
kU06ElhnN2ssnD8O/SX9DRTt0pGQGmw2kPbzPGxgXLeAzqWTGrs3nxcqvVAM7b7l
6TAcMbeM8IXiZ4uNiSa3kL+Ns9bY9t3gugTSSeb3qQpjMbXx7svUhtFfbevxbj9A
tDeiNoHxl0ATAgMBAAGjgdswgdgwDAYDVR0TAQH/BAIwADAOBgNVHQ8BAf8EBAMC
BaAwFgYDVR0lAQH/BAwwCgYIKwYBBQUHAwEwHQYDVR0OBBYEFDP6Qz5jxkYyGSKt
B8PnoJMzBT/dMB8GA1UdIwQYMBaAFMH4Zz9PLcGhx9PPojN2d7pRpEacMGAGA1Ud
EQRZMFeCCWxvY2FsaG9zdIIVbG9jYWxob3N0LmxvY2FsZG9tYWlughtzZXJ2ZXIt
c2FuLnB5dGhvbi1sZGFwLnRlc3SHBH8AAAGHEAAAAAAAAAAAAAAAAAAAAAEwDQYJ
KoZIhvcNAQELBQADggEBAEIo+MiqoOvclSwrIEO8Tnc5xh6nvwNqZf8ZpnIgCQtb
gtc5wmHH00g8MIK1fUt9KvI66EwSVjS8xORJaV+FvIW0mCYGXEze1NPGyTtLHz+q
Lgk+M/ZEHdaMTaRF8zsoCd2Zhs2quFNvR2ltYm/VZ+Z4WOuXBEEKCOHuysothQH9
d/aZEFTGztqIbLdI3GsPYP+K9cGD3iW6P1MfhRgDHgYU2h5vsfYpCnXRO+eFeymF
bMrwHp73xNSoAI+zlMKz2OqbFZmZ7CYmIbbrY/w/IZkt4lsRhkyYguZd5IQWKhMw
N0IBDZ77cTXUj8TMi2/Ny80pLe/XtTZk2W5Z00e6PP4=
-----END CERTIFICATE-----
